; Function Attrs: mustprogress uwtable
define dso_local noundef nonnull align 8 dereferenceable(8) ptr @_ZNSt3__18ios_base5iwordEi(ptr noundef nonnull align 8 captures(none) dereferenceable(136) %0, i32 noundef %1) local_unnamed_addr #1 align 2 {
  %3 = sext i32 %1 to i64
  %4 = add nsw i64 %3, 1
  %5 = getelementptr inbounds nuw i8, ptr %0, i64 104
  %6 = load i64, ptr %5, align 8, !tbaa !26
  %7 = icmp ugt i64 %4, %6
  br i1 %7, label %8, label %._crit_edge19

._crit_edge19:                                    ; preds = %2
  %.phi.trans.insert = getelementptr inbounds nuw i8, ptr %0, i64 96
  %.pre = load i64, ptr %.phi.trans.insert, align 8, !tbaa !27
  %.phi.trans.insert20 = getelementptr inbounds nuw i8, ptr %0, i64 88
  %.pre21 = load ptr, ptr %.phi.trans.insert20, align 8, !tbaa !28
  br label %38

8:                                                ; preds = %2
  %9 = icmp ult i64 %4, 1152921504606846975
  %10 = shl i64 %6, 1
  %.sroa.speculated.i = tail call i64 @llvm.umax.i64(i64 %10, i64 range(i64 -2147483647, 2147483649) %4)
  %.0.i = select i1 %9, i64 %.sroa.speculated.i, i64 2305843009213693951
  %11 = getelementptr inbounds nuw i8, ptr %0, i64 88
  %12 = load ptr, ptr %11, align 8, !tbaa !28
  %13 = shl i64 %.0.i, 3
  %14 = tail call ptr @realloc(ptr noundef %12, i64 noundef %13) #27
  %15 = ptrtoint ptr %14 to i64
  %.not = icmp eq ptr %14, null
  br i1 %.not, label %16, label %24

16:                                               ; preds = %8
  %17 = getelementptr inbounds nuw i8, ptr %0, i64 32
  %18 = load i32, ptr %17, align 8, !tbaa !29
  %19 = or i32 %18, 1
  store i32 %19, ptr %17, align 8, !tbaa !29
  %20 = getelementptr inbounds nuw i8, ptr %0, i64 36
  %21 = load i32, ptr %20, align 4, !tbaa !30
  %22 = and i32 %21, %19
  %.not4.i.i = icmp eq i32 %22, 0
  br i1 %.not4.i.i, label %.thread, label %23

23:                                               ; preds = %16
  tail call void @_ZNSt3__115__throw_failureB8ne210000EPKc(ptr noundef nonnull @.str.2) #28
  unreachable

.thread:                                          ; preds = %16
  store i64 0, ptr @_ZZNSt3__18ios_base5iwordEiE5error, align 8, !tbaa !27
  br label %43

24:                                               ; preds = %8
  store ptr %14, ptr %11, align 8, !tbaa !28
  %25 = getelementptr inbounds nuw i8, ptr %0, i64 96
  %26 = load i64, ptr %25, align 8, !tbaa !31
  %27 = icmp samesign ult i64 %26, %.0.i
  br i1 %27, label %.lr.ph.preheader, label %._crit_edge

.lr.ph.preheader:                                 ; preds = %24
  %28 = getelementptr i64, ptr %14, i64 %26
  %29 = shl i64 %26, 3
  %30 = add i64 %29, %15
  %31 = add i64 %30, 8
  %32 = add i64 %13, %15
  %umax = tail call i64 @llvm.umax.i64(i64 %31, i64 %32)
  %33 = xor i64 %15, -1
  %34 = add i64 %umax, %33
  %35 = sub i64 %34, %29
  %36 = and i64 %35, -8
  %37 = add i64 %36, 8
  tail call void @llvm.memset.p0.i64(ptr align 8 %28, i8 0, i64 %37, i1 false), !tbaa !27
  br label %._crit_edge

._crit_edge:                                      ; preds = %.lr.ph.preheader, %24
  store i64 %.0.i, ptr %5, align 8, !tbaa !26
  br label %38

38:                                               ; preds = %._crit_edge19, %._crit_edge
  %39 = phi ptr [ %.pre21, %._crit_edge19 ], [ %14, %._crit_edge ]
  %40 = phi i64 [ %.pre, %._crit_edge19 ], [ %26, %._crit_edge ]
  %41 = getelementptr inbounds nuw i8, ptr %0, i64 96
  %.sroa.speculated = tail call i64 @llvm.umax.i64(i64 %40, i64 %4)
  store i64 %.sroa.speculated, ptr %41, align 8, !tbaa !31
  %42 = getelementptr inbounds i64, ptr %39, i64 %3
  br label %43

43:                                               ; preds = %.thread, %38
  %.1 = phi ptr [ %42, %38 ], [ @_ZZNSt3__18ios_base5iwordEiE5error, %.thread ]
  ret ptr %.1
}